target datalayout = "e-m:e-p270:32:32-p271:32:32-p272:64:64-i64:64-i128:128-f80:128-n8:16:32:64-S128"
target triple = "x86_64-pc-linux-gnu"

@.str.3 = private unnamed_addr constant [6 x i8] c"guc.c\00", align 1
@.str.44 = private unnamed_addr constant [2 x i8] c"B\00", align 1
@.str.45 = private unnamed_addr constant [3 x i8] c"kB\00", align 1
@.str.46 = private unnamed_addr constant [3 x i8] c"MB\00", align 1
@get_config_unit_name.bbuf = internal global [8 x i8] zeroinitializer, align 1
@.str.47 = private unnamed_addr constant [5 x i8] c"%dkB\00", align 1
@get_config_unit_name.xbuf = internal global [8 x i8] zeroinitializer, align 1
@.str.48 = private unnamed_addr constant [3 x i8] c"ms\00", align 1
@.str.49 = private unnamed_addr constant [2 x i8] c"s\00", align 1
@.str.50 = private unnamed_addr constant [4 x i8] c"min\00", align 1
@.str.51 = private unnamed_addr constant [33 x i8] c"unrecognized GUC units value: %d\00", align 1
@__func__.get_config_unit_name = private unnamed_addr constant [21 x i8] c"get_config_unit_name\00", align 1

; Function Attrs: nounwind uwtable
define dso_local ptr @get_config_unit_name(i32 noundef %0) #0 {
  %2 = alloca ptr, align 8
  %3 = alloca i32, align 4
  store i32 %0, ptr %3, align 4
  %4 = load i32, ptr %3, align 4
  %5 = and i32 %4, 2130706432
  switch i32 %5, label %27 [
    i32 0, label %6
    i32 83886080, label %7
    i32 16777216, label %8
    i32 67108864, label %9
    i32 33554432, label %10
    i32 50331648, label %17
    i32 268435456, label %24
    i32 536870912, label %25
    i32 805306368, label %26
  ]

6:                                                ; preds = %1
  store ptr null, ptr %2, align 8
  br label %39

7:                                                ; preds = %1
  store ptr @.str.44, ptr %2, align 8
  br label %39

8:                                                ; preds = %1
  store ptr @.str.45, ptr %2, align 8
  br label %39

9:                                                ; preds = %1
  store ptr @.str.46, ptr %2, align 8
  br label %39

10:                                               ; preds = %1
  %11 = load i8, ptr @get_config_unit_name.bbuf, align 1
  %12 = sext i8 %11 to i32
  %13 = icmp eq i32 %12, 0
  br i1 %13, label %14, label %16

14:                                               ; preds = %10
  %15 = call i32 (ptr, i64, ptr, ...) @pg_snprintf(ptr noundef @get_config_unit_name.bbuf, i64 noundef 8, ptr noundef @.str.47, i32 noundef 8)
  br label %16

16:                                               ; preds = %14, %10
  store ptr @get_config_unit_name.bbuf, ptr %2, align 8
  br label %39

17:                                               ; preds = %1
  %18 = load i8, ptr @get_config_unit_name.xbuf, align 1
  %19 = sext i8 %18 to i32
  %20 = icmp eq i32 %19, 0
  br i1 %20, label %21, label %23

21:                                               ; preds = %17
  %22 = call i32 (ptr, i64, ptr, ...) @pg_snprintf(ptr noundef @get_config_unit_name.xbuf, i64 noundef 8, ptr noundef @.str.47, i32 noundef 8)
  br label %23

23:                                               ; preds = %21, %17
  store ptr @get_config_unit_name.xbuf, ptr %2, align 8
  br label %39

24:                                               ; preds = %1
  store ptr @.str.48, ptr %2, align 8
  br label %39

25:                                               ; preds = %1
  store ptr @.str.49, ptr %2, align 8
  br label %39

26:                                               ; preds = %1
  store ptr @.str.50, ptr %2, align 8
  br label %39

27:                                               ; preds = %1
  br label %28

28:                                               ; preds = %27
  br i1 true, label %29, label %31

29:                                               ; preds = %28
  %30 = call zeroext i1 @errstart_cold(i32 noundef 21, ptr noundef null) #18
  br i1 %30, label %33, label %37

31:                                               ; preds = %28
  %32 = call zeroext i1 @errstart(i32 noundef 21, ptr noundef null)
  br i1 %32, label %33, label %37

33:                                               ; preds = %31, %29
  %34 = load i32, ptr %3, align 4
  %35 = and i32 %34, 2130706432
  %36 = call i32 (ptr, ...) @errmsg_internal(ptr noundef @.str.51, i32 noundef %35)
  call void @errfinish(ptr noundef @.str.3, i32 noundef 2852, ptr noundef @__func__.get_config_unit_name)
  br label %37

37:                                               ; preds = %33, %31, %29
  unreachable

38:                                               ; No predecessors!
  store ptr null, ptr %2, align 8
  br label %39

39:                                               ; preds = %38, %26, %25, %24, %23, %16, %9, %8, %7, %6
  %40 = load ptr, ptr %2, align 8
  ret ptr %40
}