; Function Attrs: nounwind uwtable
define dso_local noundef ptr @get_config_unit_name(i32 noundef %0) local_unnamed_addr #0 {
  %2 = and i32 %0, 2130706432
  switch i32 %2, label %19 [
    i32 0, label %22
    i32 83886080, label %3
    i32 16777216, label %4
    i32 67108864, label %5
    i32 33554432, label %6
    i32 50331648, label %11
    i32 268435456, label %16
    i32 536870912, label %17
    i32 805306368, label %18
  ]

3:                                                ; preds = %1
  br label %22

4:                                                ; preds = %1
  br label %22

5:                                                ; preds = %1
  br label %22

6:                                                ; preds = %1
  %7 = load i8, ptr @get_config_unit_name.bbuf, align 1
  %8 = icmp eq i8 %7, 0
  br i1 %8, label %9, label %22

9:                                                ; preds = %6
  %10 = tail call i32 (ptr, i64, ptr, ...) @pg_snprintf(ptr noundef nonnull @get_config_unit_name.bbuf, i64 noundef 8, ptr noundef nonnull @.str.47, i32 noundef 8) #29
  br label %22

11:                                               ; preds = %1
  %12 = load i8, ptr @get_config_unit_name.xbuf, align 1
  %13 = icmp eq i8 %12, 0
  br i1 %13, label %14, label %22

14:                                               ; preds = %11
  %15 = tail call i32 (ptr, i64, ptr, ...) @pg_snprintf(ptr noundef nonnull @get_config_unit_name.xbuf, i64 noundef 8, ptr noundef nonnull @.str.47, i32 noundef 8) #29
  br label %22

16:                                               ; preds = %1
  br label %22

17:                                               ; preds = %1
  br label %22

18:                                               ; preds = %1
  br label %22

19:                                               ; preds = %1
  %20 = tail call zeroext i1 @errstart_cold(i32 noundef 21, ptr noundef null) #31
  tail call void @llvm.assume(i1 %20)
  %21 = tail call i32 (ptr, ...) @errmsg_internal(ptr noundef nonnull @.str.51, i32 noundef %2) #29
  tail call void @errfinish(ptr noundef nonnull @.str.3, i32 noundef 2852, ptr noundef nonnull @__func__.get_config_unit_name) #29
  unreachable

22:                                               ; preds = %11, %14, %6, %9, %1, %18, %17, %16, %5, %4, %3
  %.0 = phi ptr [ @.str.50, %18 ], [ @.str.49, %17 ], [ @.str.48, %16 ], [ @.str.46, %5 ], [ @.str.45, %4 ], [ @.str.44, %3 ], [ null, %1 ], [ @get_config_unit_name.bbuf, %9 ], [ @get_config_unit_name.bbuf, %6 ], [ @get_config_unit_name.xbuf, %14 ], [ @get_config_unit_name.xbuf, %11 ]
  ret ptr %.0
}